target datalayout = "e-m:e-p270:32:32-p271:32:32-p272:64:64-i64:64-i128:128-f80:128-n8:16:32:64-S128"
target triple = "x86_64-pc-linux-gnu"

%struct.expert_field = type { i32, i32 }
%struct.MessageHeader = type { [4 x i8], %struct.Version, i8, i8, i32, i32, i32, ptr }
%struct.Version = type { i8, i8 }

@hf_UCO_Time_hour = internal global i32 0, align 4
@hf_UCO_Time_minute = internal global i32 0, align 4
@hf_UCO_Time_second = internal global i32 0, align 4
@ei_gias_unknown_giop_msg = internal global %struct.expert_field zeroinitializer, align 4
@ei_gias_unknown_exception = internal global %struct.expert_field zeroinitializer, align 4
@ett_giop_struct = internal global i32 0, align 4
@boundary = internal global i32 12, align 4
@.str.826 = private unnamed_addr constant [21 x i8] c"Unknown exception %d\00", align 1
@.str.827 = private unnamed_addr constant [24 x i8] c"Unknown GIOP message %d\00", align 1
@.str.842 = private unnamed_addr constant [16 x i8] c"struct UCO_Time\00", align 1

; Function Attrs: null_pointer_is_valid sspstrong uwtable
define internal void @decode_UCO_Time_st(ptr noundef %0, ptr noundef %1, ptr noundef %2, ptr noundef %3, ptr noundef %4, ptr noundef %5, ptr noundef %6, i1 noundef zeroext %7) #0 {
  %9 = alloca ptr, align 8
  %10 = alloca ptr, align 8
  %11 = alloca ptr, align 8
  %12 = alloca ptr, align 8
  %13 = alloca ptr, align 8
  %14 = alloca ptr, align 8
  %15 = alloca ptr, align 8
  %16 = alloca i8, align 1
  store ptr %0, ptr %9, align 8
  store ptr %1, ptr %10, align 8
  store ptr %2, ptr %11, align 8
  store ptr %3, ptr %12, align 8
  store ptr %4, ptr %13, align 8
  store ptr %5, ptr %14, align 8
  store ptr %6, ptr %15, align 8
  %17 = zext i1 %7 to i8
  store i8 %17, ptr %16, align 1
  %18 = load ptr, ptr %11, align 8
  %19 = load i32, ptr @hf_UCO_Time_hour, align 4
  %20 = load ptr, ptr %9, align 8
  %21 = load ptr, ptr %13, align 8
  %22 = load i32, ptr %21, align 4
  %23 = sub i32 %22, 2
  %24 = load ptr, ptr %9, align 8
  %25 = load ptr, ptr %13, align 8
  %26 = load i8, ptr %16, align 1, !range !6, !noundef !7
  %27 = trunc i8 %26 to i1
  %28 = load i32, ptr @boundary, align 4
  %29 = call zeroext i16 @get_CDR_ushort(ptr noundef %24, ptr noundef %25, i1 noundef zeroext %27, i32 noundef %28)
  %30 = zext i16 %29 to i32
  %31 = call ptr @proto_tree_add_uint(ptr noundef %18, i32 noundef %19, ptr noundef %20, i32 noundef %23, i32 noundef 2, i32 noundef %30)
  %32 = load ptr, ptr %11, align 8
  %33 = load i32, ptr @hf_UCO_Time_minute, align 4
  %34 = load ptr, ptr %9, align 8
  %35 = load ptr, ptr %13, align 8
  %36 = load i32, ptr %35, align 4
  %37 = sub i32 %36, 2
  %38 = load ptr, ptr %9, align 8
  %39 = load ptr, ptr %13, align 8
  %40 = load i8, ptr %16, align 1, !range !6, !noundef !7
  %41 = trunc i8 %40 to i1
  %42 = load i32, ptr @boundary, align 4
  %43 = call zeroext i16 @get_CDR_ushort(ptr noundef %38, ptr noundef %39, i1 noundef zeroext %41, i32 noundef %42)
  %44 = zext i16 %43 to i32
  %45 = call ptr @proto_tree_add_uint(ptr noundef %32, i32 noundef %33, ptr noundef %34, i32 noundef %37, i32 noundef 2, i32 noundef %44)
  %46 = load ptr, ptr %11, align 8
  %47 = load i32, ptr @hf_UCO_Time_second, align 4
  %48 = load ptr, ptr %9, align 8
  %49 = load ptr, ptr %13, align 8
  %50 = load i32, ptr %49, align 4
  %51 = sub i32 %50, 4
  %52 = load ptr, ptr %9, align 8
  %53 = load ptr, ptr %13, align 8
  %54 = load i8, ptr %16, align 1, !range !6, !noundef !7
  %55 = trunc i8 %54 to i1
  %56 = load i32, ptr @boundary, align 4
  %57 = call float @get_CDR_float(ptr noundef %52, ptr noundef %53, i1 noundef zeroext %55, i32 noundef %56)
  %58 = call ptr @proto_tree_add_float(ptr noundef %46, i32 noundef %47, ptr noundef %48, i32 noundef %51, i32 noundef 4, float noundef %57)
  ret void
}

; Function Attrs: null_pointer_is_valid sspstrong uwtable
define internal void @decode_GIAS_SubmitStandingQueryRequest_clear_before(ptr noundef %0, ptr noundef %1, ptr noundef %2, ptr noundef %3, ptr noundef %4, ptr noundef %5, ptr noundef %6, i1 noundef zeroext %7) #0 {
  %9 = alloca ptr, align 8
  %10 = alloca ptr, align 8
  %11 = alloca ptr, align 8
  %12 = alloca ptr, align 8
  %13 = alloca ptr, align 8
  %14 = alloca ptr, align 8
  %15 = alloca ptr, align 8
  %16 = alloca i8, align 1
  %17 = alloca ptr, align 8
  store ptr %0, ptr %9, align 8
  store ptr %1, ptr %10, align 8
  store ptr %2, ptr %11, align 8
  store ptr %3, ptr %12, align 8
  store ptr %4, ptr %13, align 8
  store ptr %5, ptr %14, align 8
  store ptr %6, ptr %15, align 8
  %18 = zext i1 %7 to i8
  store i8 %18, ptr %16, align 1
  %19 = load ptr, ptr %14, align 8
  %20 = getelementptr inbounds nuw %struct.MessageHeader, ptr %19, i32 0, i32 3
  %21 = load i8, ptr %20, align 1
  %22 = zext i8 %21 to i32
  switch i32 %22, label %51 [
    i32 0, label %23
    i32 1, label %39
  ]

23:                                               ; preds = %8
  call void @llvm.lifetime.start.p0(i64 8, ptr %17) #6
  %24 = load ptr, ptr %11, align 8
  %25 = load ptr, ptr %9, align 8
  %26 = load ptr, ptr %13, align 8
  %27 = load i32, ptr %26, align 4
  %28 = load i32, ptr @ett_giop_struct, align 4
  %29 = call ptr @proto_tree_add_subtree(ptr noundef %24, ptr noundef %25, i32 noundef %27, i32 noundef -1, i32 noundef %28, ptr noundef null, ptr noundef @.str.842)
  store ptr %29, ptr %17, align 8
  %30 = load ptr, ptr %9, align 8
  %31 = load ptr, ptr %10, align 8
  %32 = load ptr, ptr %17, align 8
  %33 = load ptr, ptr %12, align 8
  %34 = load ptr, ptr %13, align 8
  %35 = load ptr, ptr %14, align 8
  %36 = load ptr, ptr %15, align 8
  %37 = load i8, ptr %16, align 1, !range !6, !noundef !7
  %38 = trunc i8 %37 to i1
  call void @decode_UCO_Time_st(ptr noundef %30, ptr noundef %31, ptr noundef %32, ptr noundef %33, ptr noundef %34, ptr noundef %35, ptr noundef %36, i1 noundef zeroext %38)
  call void @llvm.lifetime.end.p0(i64 8, ptr %17) #6
  br label %59

39:                                               ; preds = %8
  %40 = load ptr, ptr %14, align 8
  %41 = getelementptr inbounds nuw %struct.MessageHeader, ptr %40, i32 0, i32 6
  %42 = load i32, ptr %41, align 8
  switch i32 %42, label %43 [
    i32 0, label %50
    i32 1, label %50
  ]

43:                                               ; preds = %39
  %44 = load ptr, ptr %10, align 8
  %45 = load ptr, ptr %12, align 8
  %46 = load ptr, ptr %14, align 8
  %47 = getelementptr inbounds nuw %struct.MessageHeader, ptr %46, i32 0, i32 6
  %48 = load i32, ptr %47, align 8
  %49 = call ptr (ptr, ptr, ptr, ptr, ...) @expert_add_info_format(ptr noundef %44, ptr noundef %45, ptr noundef @ei_gias_unknown_exception, ptr noundef @.str.826, i32 noundef %48)
  br label %50

50:                                               ; preds = %43, %39, %39
  br label %59

51:                                               ; preds = %8
  %52 = load ptr, ptr %10, align 8
  %53 = load ptr, ptr %12, align 8
  %54 = load ptr, ptr %14, align 8
  %55 = getelementptr inbounds nuw %struct.MessageHeader, ptr %54, i32 0, i32 3
  %56 = load i8, ptr %55, align 1
  %57 = zext i8 %56 to i32
  %58 = call ptr (ptr, ptr, ptr, ptr, ...) @expert_add_info_format(ptr noundef %52, ptr noundef %53, ptr noundef @ei_gias_unknown_giop_msg, ptr noundef @.str.827, i32 noundef %57)
  br label %59

59:                                               ; preds = %51, %50, %23
  ret void
}