; Function Attrs: null_pointer_is_valid sspstrong uwtable
define internal fastcc void @decode_GIAS_SubmitStandingQueryRequest_clear_before(ptr noundef %0, ptr noundef %1, ptr noundef %2, ptr noundef %3, ptr noundef %4, ptr noundef readonly captures(none) %5, i1 noundef zeroext %6) unnamed_addr #0 {
  %8 = getelementptr inbounds nuw i8, ptr %5, i64 7
  %9 = load i8, ptr %8, align 1
  switch i8 %9, label %36 [
    i8 0, label %10
    i8 1, label %31
  ]

10:                                               ; preds = %7
  %11 = load i32, ptr %4, align 4
  %12 = load i32, ptr @ett_giop_struct, align 4
  %13 = tail call ptr @proto_tree_add_subtree(ptr noundef %2, ptr noundef %0, i32 noundef %11, i32 noundef -1, i32 noundef %12, ptr noundef null, ptr noundef nonnull @.str.842)
  %14 = load i32, ptr @hf_UCO_Time_hour, align 4
  %15 = load i32, ptr %4, align 4
  %16 = add i32 %15, -2
  %17 = tail call zeroext i16 @get_CDR_ushort(ptr noundef %0, ptr noundef %4, i1 noundef zeroext %6, i32 noundef 12)
  %18 = zext i16 %17 to i32
  %19 = tail call ptr @proto_tree_add_uint(ptr noundef %13, i32 noundef %14, ptr noundef %0, i32 noundef %16, i32 noundef 2, i32 noundef %18)
  %20 = load i32, ptr @hf_UCO_Time_minute, align 4
  %21 = load i32, ptr %4, align 4
  %22 = add i32 %21, -2
  %23 = tail call zeroext i16 @get_CDR_ushort(ptr noundef %0, ptr noundef %4, i1 noundef zeroext %6, i32 noundef 12)
  %24 = zext i16 %23 to i32
  %25 = tail call ptr @proto_tree_add_uint(ptr noundef %13, i32 noundef %20, ptr noundef %0, i32 noundef %22, i32 noundef 2, i32 noundef %24)
  %26 = load i32, ptr @hf_UCO_Time_second, align 4
  %27 = load i32, ptr %4, align 4
  %28 = add i32 %27, -4
  %29 = tail call float @get_CDR_float(ptr noundef %0, ptr noundef %4, i1 noundef zeroext %6, i32 noundef 12)
  %30 = tail call ptr @proto_tree_add_float(ptr noundef %13, i32 noundef %26, ptr noundef %0, i32 noundef %28, i32 noundef 4, float noundef %29)
  br label %39

31:                                               ; preds = %7
  %32 = getelementptr inbounds nuw i8, ptr %5, i64 16
  %33 = load i32, ptr %32, align 8
  %switch = icmp ult i32 %33, 2
  br i1 %switch, label %39, label %34

34:                                               ; preds = %31
  %35 = tail call ptr (ptr, ptr, ptr, ptr, ...) @expert_add_info_format(ptr noundef %1, ptr noundef %3, ptr noundef nonnull @ei_gias_unknown_exception, ptr noundef nonnull @.str.826, i32 noundef %33)
  br label %39

36:                                               ; preds = %7
  %37 = zext i8 %9 to i32
  %38 = tail call ptr (ptr, ptr, ptr, ptr, ...) @expert_add_info_format(ptr noundef %1, ptr noundef %3, ptr noundef nonnull @ei_gias_unknown_giop_msg, ptr noundef nonnull @.str.827, i32 noundef %37)
  br label %39

39:                                               ; preds = %31, %34, %36, %10
  ret void
}